	.file	"corecopy.cpp"
	.local	_ZStL8__ioinit
	.comm	_ZStL8__ioinit,1,1
	.section	.text._ZN6originC2Eii,"axG",@progbits,_ZN6originC5Eii,comdat
	.align 2
	.weak	_ZN6originC2Eii
	.type	_ZN6originC2Eii, @function
_ZN6originC2Eii:
.LFB1022:
	.cfi_startproc
	pushq	%rbp
	.cfi_def_cfa_offset 16
	.cfi_offset 6, -16
	movq	%rsp, %rbp
	.cfi_def_cfa_register 6
	movq	%rdi, -8(%rbp)
	movl	%esi, -12(%rbp)
	movl	%edx, -16(%rbp)
	movq	-8(%rbp), %rax
	movl	-12(%rbp), %edx
	movl	%edx, (%rax)
	movq	-8(%rbp), %rax
	movl	-16(%rbp), %edx
	movl	%edx, 4(%rax)
	nop
	popq	%rbp
	.cfi_def_cfa 7, 8
	ret
	.cfi_endproc
.LFE1022:
	.size	_ZN6originC2Eii, .-_ZN6originC2Eii
	.weak	_ZN6originC1Eii
	.set	_ZN6originC1Eii,_ZN6originC2Eii
	.section	.text._ZN6originC2ERKS_,"axG",@progbits,_ZN6originC5ERKS_,comdat
	.align 2
	.weak	_ZN6originC2ERKS_
	.type	_ZN6originC2ERKS_, @function
_ZN6originC2ERKS_:
.LFB1025:
	.cfi_startproc
	pushq	%rbp
	.cfi_def_cfa_offset 16
	.cfi_offset 6, -16
	movq	%rsp, %rbp
	.cfi_def_cfa_register 6
	movq	%rdi, -8(%rbp)
	movq	%rsi, -16(%rbp)
	movq	-8(%rbp), %rax
	movl	$16, (%rax)
	nop
	popq	%rbp
	.cfi_def_cfa 7, 8
	ret
	.cfi_endproc
.LFE1025:
	.size	_ZN6originC2ERKS_, .-_ZN6originC2ERKS_
	.weak	_ZN6originC1ERKS_
	.set	_ZN6originC1ERKS_,_ZN6originC2ERKS_
	.section	.text._ZN1XC2Ei,"axG",@progbits,_ZN1XC5Ei,comdat
	.align 2
	.weak	_ZN1XC2Ei
	.type	_ZN1XC2Ei, @function
_ZN1XC2Ei:
.LFB1028:
	.cfi_startproc
	pushq	%rbp
	.cfi_def_cfa_offset 16
	.cfi_offset 6, -16
	movq	%rsp, %rbp
	.cfi_def_cfa_register 6
	movq	%rdi, -8(%rbp)
	movl	%esi, -12(%rbp)
	movq	-8(%rbp), %rax
	movl	4(%rax), %edx
	movq	-8(%rbp), %rax
	movl	%edx, (%rax)
	movq	-8(%rbp), %rax
	movl	-12(%rbp), %edx
	movl	%edx, 4(%rax)
	nop
	popq	%rbp
	.cfi_def_cfa 7, 8
	ret
	.cfi_endproc
.LFE1028:
	.size	_ZN1XC2Ei, .-_ZN1XC2Ei
	.weak	_ZN1XC1Ei
	.set	_ZN1XC1Ei,_ZN1XC2Ei
	.section	.rodata
.LC0:
	.string	"or1.a"
.LC1:
	.string	"or2.a"
.LC2:
	.string	"or1.b"
.LC3:
	.string	"or2.b"
.LC4:
	.string	"or3.a:"
.LC5:
	.string	"or4.a:"
.LC6:
	.string	"x.j"
.LC7:
	.string	"x.i"
	.text
	.globl	main
	.type	main, @function
main:
.LFB1030:
	.cfi_startproc
	pushq	%rbp
	.cfi_def_cfa_offset 16
	.cfi_offset 6, -16
	movq	%rsp, %rbp
	.cfi_def_cfa_register 6
	pushq	%rbx
	subq	$136, %rsp
	.cfi_offset 3, -24
	movq	%fs:40, %rax
	movq	%rax, -24(%rbp)
	xorl	%eax, %eax
	movl	$1, -64(%rbp)
	movl	$2, -60(%rbp)
	movl	$3, -56(%rbp)
	movl	-40(%rbp), %eax
	movl	%eax, %esi
	movl	$_ZSt4cout, %edi
	call	_ZNSolsEi
	movl	$_ZSt4endlIcSt11char_traitsIcEERSt13basic_ostreamIT_T0_ES6_, %esi
	movq	%rax, %rdi
	call	_ZNSolsEPFRSoS_E
	leaq	-144(%rbp), %rax
	movl	$4, %edx
	movl	$3, %esi
	movq	%rax, %rdi
	call	_ZN6originC1Eii
	leaq	-144(%rbp), %rdx
	leaq	-128(%rbp), %rax
	movq	%rdx, %rsi
	movq	%rax, %rdi
	call	_ZN6originC1ERKS_
	leaq	-112(%rbp), %rax
	movl	$4, %edx
	movl	$3, %esi
	movq	%rax, %rdi
	call	_ZN6originC1Eii
	movl	-144(%rbp), %ebx
	movl	$.LC0, %esi
	movl	$_ZSt4cout, %edi
	call	_ZStlsISt11char_traitsIcEERSt13basic_ostreamIcT_ES5_PKc
	movl	%ebx, %esi
	movq	%rax, %rdi
	call	_ZNSolsEi
	movl	$_ZSt4endlIcSt11char_traitsIcEERSt13basic_ostreamIT_T0_ES6_, %esi
	movq	%rax, %rdi
	call	_ZNSolsEPFRSoS_E
	movl	-128(%rbp), %ebx
	movl	$.LC1, %esi
	movl	$_ZSt4cout, %edi
	call	_ZStlsISt11char_traitsIcEERSt13basic_ostreamIcT_ES5_PKc
	movl	%ebx, %esi
	movq	%rax, %rdi
	call	_ZNSolsEi
	movl	$_ZSt4endlIcSt11char_traitsIcEERSt13basic_ostreamIT_T0_ES6_, %esi
	movq	%rax, %rdi
	call	_ZNSolsEPFRSoS_E
	movl	-140(%rbp), %ebx
	movl	$.LC2, %esi
	movl	$_ZSt4cout, %edi
	call	_ZStlsISt11char_traitsIcEERSt13basic_ostreamIcT_ES5_PKc
	movl	%ebx, %esi
	movq	%rax, %rdi
	call	_ZNSolsEi
	movl	$_ZSt4endlIcSt11char_traitsIcEERSt13basic_ostreamIT_T0_ES6_, %esi
	movq	%rax, %rdi
	call	_ZNSolsEPFRSoS_E
	movl	-124(%rbp), %ebx
	movl	$.LC3, %esi
	movl	$_ZSt4cout, %edi
	call	_ZStlsISt11char_traitsIcEERSt13basic_ostreamIcT_ES5_PKc
	movl	%ebx, %esi
	movq	%rax, %rdi
	call	_ZNSolsEi
	movl	$_ZSt4endlIcSt11char_traitsIcEERSt13basic_ostreamIT_T0_ES6_, %esi
	movq	%rax, %rdi
	call	_ZNSolsEPFRSoS_E
	movl	$6, -128(%rbp)
	movl	-144(%rbp), %eax
	movl	%eax, %esi
	movl	$_ZSt4cout, %edi
	call	_ZNSolsEi
	movl	$_ZSt4endlIcSt11char_traitsIcEERSt13basic_ostreamIT_T0_ES6_, %esi
	movq	%rax, %rdi
	call	_ZNSolsEPFRSoS_E
	movq	-128(%rbp), %rax
	movq	%rax, -112(%rbp)
	leaq	-112(%rbp), %rdx
	leaq	-96(%rbp), %rax
	movq	%rdx, %rsi
	movq	%rax, %rdi
	call	_ZN6originC1ERKS_
	movl	-112(%rbp), %ebx
	movl	$.LC4, %esi
	movl	$_ZSt4cout, %edi
	call	_ZStlsISt11char_traitsIcEERSt13basic_ostreamIcT_ES5_PKc
	movl	%ebx, %esi
	movq	%rax, %rdi
	call	_ZNSolsEi
	movl	$_ZSt4endlIcSt11char_traitsIcEERSt13basic_ostreamIT_T0_ES6_, %esi
	movq	%rax, %rdi
	call	_ZNSolsEPFRSoS_E
	movl	-96(%rbp), %ebx
	movl	$.LC5, %esi
	movl	$_ZSt4cout, %edi
	call	_ZStlsISt11char_traitsIcEERSt13basic_ostreamIcT_ES5_PKc
	movl	%ebx, %esi
	movq	%rax, %rdi
	call	_ZNSolsEi
	movl	$_ZSt4endlIcSt11char_traitsIcEERSt13basic_ostreamIT_T0_ES6_, %esi
	movq	%rax, %rdi
	call	_ZNSolsEPFRSoS_E
	leaq	-80(%rbp), %rax
	movl	$2, %esi
	movq	%rax, %rdi
	call	_ZN1XC1Ei
	movl	-76(%rbp), %ebx
	movl	$.LC6, %esi
	movl	$_ZSt4cout, %edi
	call	_ZStlsISt11char_traitsIcEERSt13basic_ostreamIcT_ES5_PKc
	movl	%ebx, %esi
	movq	%rax, %rdi
	call	_ZNSolsEi
	movl	$_ZSt4endlIcSt11char_traitsIcEERSt13basic_ostreamIT_T0_ES6_, %esi
	movq	%rax, %rdi
	call	_ZNSolsEPFRSoS_E
	movl	-80(%rbp), %ebx
	movl	$.LC7, %esi
	movl	$_ZSt4cout, %edi
	call	_ZStlsISt11char_traitsIcEERSt13basic_ostreamIcT_ES5_PKc
	movl	%ebx, %esi
	movq	%rax, %rdi
	call	_ZNSolsEi
	movl	$_ZSt4endlIcSt11char_traitsIcEERSt13basic_ostreamIT_T0_ES6_, %esi
	movq	%rax, %rdi
	call	_ZNSolsEPFRSoS_E
	movl	$0, %eax
	movq	-24(%rbp), %rcx
	xorq	%fs:40, %rcx
	je	.L6
	call	__stack_chk_fail
.L6:
	addq	$136, %rsp
	popq	%rbx
	popq	%rbp
	.cfi_def_cfa 7, 8
	ret
	.cfi_endproc
.LFE1030:
	.size	main, .-main
	.type	_Z41__static_initialization_and_destruction_0ii, @function
_Z41__static_initialization_and_destruction_0ii:
.LFB1039:
	.cfi_startproc
	pushq	%rbp
	.cfi_def_cfa_offset 16
	.cfi_offset 6, -16
	movq	%rsp, %rbp
	.cfi_def_cfa_register 6
	subq	$16, %rsp
	movl	%edi, -4(%rbp)
	movl	%esi, -8(%rbp)
	cmpl	$1, -4(%rbp)
	jne	.L9
	cmpl	$65535, -8(%rbp)
	jne	.L9
	movl	$_ZStL8__ioinit, %edi
	call	_ZNSt8ios_base4InitC1Ev
	movl	$__dso_handle, %edx
	movl	$_ZStL8__ioinit, %esi
	movl	$_ZNSt8ios_base4InitD1Ev, %edi
	call	__cxa_atexit
.L9:
	nop
	leave
	.cfi_def_cfa 7, 8
	ret
	.cfi_endproc
.LFE1039:
	.size	_Z41__static_initialization_and_destruction_0ii, .-_Z41__static_initialization_and_destruction_0ii
	.type	_GLOBAL__sub_I_main, @function
_GLOBAL__sub_I_main:
.LFB1040:
	.cfi_startproc
	pushq	%rbp
	.cfi_def_cfa_offset 16
	.cfi_offset 6, -16
	movq	%rsp, %rbp
	.cfi_def_cfa_register 6
	movl	$65535, %esi
	movl	$1, %edi
	call	_Z41__static_initialization_and_destruction_0ii
	popq	%rbp
	.cfi_def_cfa 7, 8
	ret
	.cfi_endproc
.LFE1040:
	.size	_GLOBAL__sub_I_main, .-_GLOBAL__sub_I_main
	.section	.init_array,"aw"
	.align 8
	.quad	_GLOBAL__sub_I_main
	.hidden	__dso_handle
	.ident	"GCC: (Ubuntu 5.4.0-6ubuntu1~16.04.9) 5.4.0 20160609"
	.section	.note.GNU-stack,"",@progbits
