	.file	"cstruct.c"
	.text
	.globl	funcp
	.type	funcp, @function
funcp:
.LFB0:
	.cfi_startproc
	pushq	%rbp
	.cfi_def_cfa_offset 16
	.cfi_offset 6, -16
	movq	%rsp, %rbp
	.cfi_def_cfa_register 6
	movl	%edi, -20(%rbp)
	movl	%esi, -24(%rbp)
	movl	-20(%rbp), %eax
	imull	-24(%rbp), %eax
	movl	%eax, -4(%rbp)
	movl	-20(%rbp), %edx
	movl	-24(%rbp), %eax
	addl	%edx, %eax
	popq	%rbp
	.cfi_def_cfa 7, 8
	ret
	.cfi_endproc
.LFE0:
	.size	funcp, .-funcp
	.globl	fp
	.data
	.align 8
	.type	fp, @object
	.size	fp, 8
fp:
	.quad	funcp
	.section	.rodata
.LC0:
	.string	"sum : %d\n"
	.text
	.globl	main
	.type	main, @function
main:
.LFB1:
	.cfi_startproc
	pushq	%rbp
	.cfi_def_cfa_offset 16
	.cfi_offset 6, -16
	movq	%rsp, %rbp
	.cfi_def_cfa_register 6
	subq	$32, %rsp
	movl	$3, -16(%rbp)
	movq	$funcp, -8(%rbp)
	movq	-8(%rbp), %rax
	movl	$4, %esi
	movl	$3, %edi
	call	*%rax
	movl	%eax, -20(%rbp)
	movb	$67, -21(%rbp)
	movl	-20(%rbp), %eax
	movl	%eax, %esi
	movl	$.LC0, %edi
	movl	$0, %eax
	call	printf
	movl	$0, %eax
	leave
	.cfi_def_cfa 7, 8
	ret
	.cfi_endproc
.LFE1:
	.size	main, .-main
	.ident	"GCC: (Ubuntu 5.4.0-6ubuntu1~16.04.9) 5.4.0 20160609"
	.section	.note.GNU-stack,"",@progbits
